; Function Attrs: mustprogress uwtable
define noundef nonnull ptr @_ZN9grpc_core8internal55alts_handshaker_client_get_recv_buffer_addr_for_testingEP22alts_handshaker_client(ptr noundef readnone %c) local_unnamed_addr #3 {
entry:
  %cmp.not = icmp eq ptr %c, null
  br i1 %cmp.not, label %if.then, label %do.end

if.then:                                          ; preds = %entry
  tail call void @gpr_assertion_failed(ptr noundef nonnull @.str, i32 noundef 777, ptr noundef nonnull @.str.1) #17
  unreachable

do.end:                                           ; preds = %entry
  %recv_buffer = getelementptr inbounds i8, ptr %c, i64 80
  ret ptr %recv_buffer
}